target datalayout = "e-m:e-p270:32:32-p271:32:32-p272:64:64-i64:64-i128:128-f80:128-n8:16:32:64-S128"
target triple = "x86_64-pc-linux-gnu"

%"class.i18n::phonenumbers::PhoneNumberOfflineGeocoder" = type { ptr, ptr, %"class.boost::scoped_ptr", ptr, i32, ptr, %"class.absl::debian2::Mutex", %"class.std::map" }
%"class.boost::scoped_ptr" = type { ptr }
%"class.absl::debian2::Mutex" = type { %"struct.std::atomic" }
%"struct.std::atomic" = type { %"struct.std::__atomic_base" }
%"struct.std::__atomic_base" = type { i64 }
%"class.std::map" = type { %"class.std::_Rb_tree" }
%"class.std::_Rb_tree" = type { %"struct.std::_Rb_tree<std::__cxx11::basic_string<char>, std::pair<const std::__cxx11::basic_string<char>, const i18n::phonenumbers::AreaCodeMap *>, std::_Select1st<std::pair<const std::__cxx11::basic_string<char>, const i18n::phonenumbers::AreaCodeMap *>>, std::less<std::__cxx11::basic_string<char>>>::_Rb_tree_impl" }
%"struct.std::_Rb_tree<std::__cxx11::basic_string<char>, std::pair<const std::__cxx11::basic_string<char>, const i18n::phonenumbers::AreaCodeMap *>, std::_Select1st<std::pair<const std::__cxx11::basic_string<char>, const i18n::phonenumbers::AreaCodeMap *>>, std::less<std::__cxx11::basic_string<char>>>::_Rb_tree_impl" = type { %"struct.std::_Rb_tree_key_compare", %"struct.std::_Rb_tree_header" }
%"struct.std::_Rb_tree_key_compare" = type { %"struct.std::less" }
%"struct.std::less" = type { i8 }
%"struct.std::_Rb_tree_header" = type { %"struct.std::_Rb_tree_node_base", i64 }
%"struct.std::_Rb_tree_node_base" = type { i32, ptr, ptr, ptr }
%"class.std::__cxx11::basic_string" = type { %"struct.std::__cxx11::basic_string<char>::_Alloc_hider", i64, %union.anon }
%"struct.std::__cxx11::basic_string<char>::_Alloc_hider" = type { ptr }
%union.anon = type { i64, [8 x i8] }

; Function Attrs: mustprogress uwtable
define dso_local void @_ZNK4i18n12phonenumbers26PhoneNumberOfflineGeocoder28GetDescriptionForValidNumberERKNS0_11PhoneNumberERKN6icu_706LocaleERKNSt7__cxx1112basic_stringIcSt11char_traitsIcESaIcEEE(ptr dead_on_unwind noalias writable sret(%"class.std::__cxx11::basic_string") align 8 %0, ptr noundef nonnull align 8 dereferenceable(104) %1, ptr noundef nonnull align 8 dereferenceable(72) %2, ptr noundef nonnull align 8 dereferenceable(217) %3, ptr noundef nonnull align 8 dereferenceable(32) %4) #4 align 2 personality ptr @__gxx_personality_v0 {
  %6 = alloca ptr, align 8
  %7 = alloca ptr, align 8
  %8 = alloca ptr, align 8
  %9 = alloca ptr, align 8
  %10 = alloca ptr, align 8
  %11 = alloca %"class.std::__cxx11::basic_string", align 8
  %12 = alloca ptr, align 8
  %13 = alloca i32, align 4
  %14 = alloca i32, align 4
  store ptr %0, ptr %6, align 8
  store ptr %1, ptr %7, align 8
  store ptr %2, ptr %8, align 8
  store ptr %3, ptr %9, align 8
  store ptr %4, ptr %10, align 8
  %15 = load ptr, ptr %7, align 8
  call void @_ZNSt7__cxx1112basic_stringIcSt11char_traitsIcESaIcEEC1Ev(ptr noundef nonnull align 8 dereferenceable(32) %11) #3
  %16 = getelementptr inbounds %"class.i18n::phonenumbers::PhoneNumberOfflineGeocoder", ptr %15, i32 0, i32 1
  %17 = load ptr, ptr %16, align 8
  %18 = load ptr, ptr %8, align 8
  invoke void @_ZNK4i18n12phonenumbers15PhoneNumberUtil22GetRegionCodeForNumberERKNS0_11PhoneNumberEPNSt7__cxx1112basic_stringIcSt11char_traitsIcESaIcEEE(ptr noundef nonnull align 8 dereferenceable(64) %17, ptr noundef nonnull align 8 dereferenceable(72) %18, ptr noundef %11)
          to label %19 unwind label %28

19:                                               ; preds = %5
  %20 = load ptr, ptr %10, align 8
  %21 = invoke noundef i32 @_ZNKSt7__cxx1112basic_stringIcSt11char_traitsIcESaIcEE7compareERKS4_(ptr noundef nonnull align 8 dereferenceable(32) %20, ptr noundef nonnull align 8 dereferenceable(32) %11)
          to label %22 unwind label %28

22:                                               ; preds = %19
  %23 = icmp eq i32 %21, 0
  br i1 %23, label %24, label %32

24:                                               ; preds = %22
  %25 = load ptr, ptr %8, align 8
  %26 = load ptr, ptr %9, align 8
  invoke void @_ZNK4i18n12phonenumbers26PhoneNumberOfflineGeocoder28GetDescriptionForValidNumberB5cxx11ERKNS0_11PhoneNumberERKN6icu_706LocaleE(ptr dead_on_unwind writable sret(%"class.std::__cxx11::basic_string") align 8 %0, ptr noundef nonnull align 8 dereferenceable(104) %15, ptr noundef nonnull align 8 dereferenceable(72) %25, ptr noundef nonnull align 8 dereferenceable(217) %26)
          to label %27 unwind label %28

27:                                               ; preds = %24
  store i32 1, ptr %14, align 4
  br label %35

28:                                               ; preds = %32, %24, %19, %5
  %29 = landingpad { ptr, i32 }
          cleanup
  %30 = extractvalue { ptr, i32 } %29, 0
  store ptr %30, ptr %12, align 8
  %31 = extractvalue { ptr, i32 } %29, 1
  store i32 %31, ptr %13, align 4
  call void @_ZNSt7__cxx1112basic_stringIcSt11char_traitsIcESaIcEED1Ev(ptr noundef nonnull align 8 dereferenceable(32) %11) #3
  br label %36

32:                                               ; preds = %22
  %33 = load ptr, ptr %9, align 8
  invoke void @_ZNK4i18n12phonenumbers26PhoneNumberOfflineGeocoder20GetRegionDisplayNameEPKNSt7__cxx1112basic_stringIcSt11char_traitsIcESaIcEEERKN6icu_706LocaleE(ptr dead_on_unwind writable sret(%"class.std::__cxx11::basic_string") align 8 %0, ptr noundef nonnull align 8 dereferenceable(104) %15, ptr noundef %11, ptr noundef nonnull align 8 dereferenceable(217) %33)
          to label %34 unwind label %28

34:                                               ; preds = %32
  store i32 1, ptr %14, align 4
  br label %35

35:                                               ; preds = %34, %27
  call void @_ZNSt7__cxx1112basic_stringIcSt11char_traitsIcESaIcEED1Ev(ptr noundef nonnull align 8 dereferenceable(32) %11) #3
  ret void

36:                                               ; preds = %28
  %37 = load ptr, ptr %12, align 8
  %38 = load i32, ptr %13, align 4
  %39 = insertvalue { ptr, i32 } poison, ptr %37, 0
  %40 = insertvalue { ptr, i32 } %39, i32 %38, 1
  resume { ptr, i32 } %40
}