; Function Attrs: mustprogress uwtable
define dso_local void @_ZNK4i18n12phonenumbers26PhoneNumberOfflineGeocoder28GetDescriptionForValidNumberERKNS0_11PhoneNumberERKN6icu_706LocaleERKNSt7__cxx1112basic_stringIcSt11char_traitsIcESaIcEEE(ptr dead_on_unwind noalias writable sret(%"class.std::__cxx11::basic_string") align 8 %0, ptr noundef nonnull align 8 dereferenceable(104) %1, ptr noundef nonnull align 8 dereferenceable(72) %2, ptr noundef nonnull align 8 dereferenceable(217) %3, ptr noundef nonnull align 8 dereferenceable(32) %4) local_unnamed_addr #3 align 2 personality ptr @__gxx_personality_v0 {
  %6 = alloca %"class.std::__cxx11::basic_string", align 8
  call void @_ZNSt7__cxx1112basic_stringIcSt11char_traitsIcESaIcEEC1Ev(ptr noundef nonnull align 8 dereferenceable(32) %6) #14
  %7 = getelementptr inbounds i8, ptr %1, i64 8
  %8 = load ptr, ptr %7, align 8
  invoke void @_ZNK4i18n12phonenumbers15PhoneNumberUtil22GetRegionCodeForNumberERKNS0_11PhoneNumberEPNSt7__cxx1112basic_stringIcSt11char_traitsIcESaIcEEE(ptr noundef nonnull align 8 dereferenceable(64) %8, ptr noundef nonnull align 8 dereferenceable(72) %2, ptr noundef nonnull %6)
          to label %9 unwind label %14

9:                                                ; preds = %5
  %10 = invoke noundef i32 @_ZNKSt7__cxx1112basic_stringIcSt11char_traitsIcESaIcEE7compareERKS4_(ptr noundef nonnull align 8 dereferenceable(32) %4, ptr noundef nonnull align 8 dereferenceable(32) %6)
          to label %11 unwind label %14

11:                                               ; preds = %9
  %12 = icmp eq i32 %10, 0
  br i1 %12, label %13, label %16

13:                                               ; preds = %11
  invoke void @_ZNK4i18n12phonenumbers26PhoneNumberOfflineGeocoder28GetDescriptionForValidNumberB5cxx11ERKNS0_11PhoneNumberERKN6icu_706LocaleE(ptr dead_on_unwind writable sret(%"class.std::__cxx11::basic_string") align 8 %0, ptr noundef nonnull align 8 dereferenceable(104) %1, ptr noundef nonnull align 8 dereferenceable(72) %2, ptr noundef nonnull align 8 dereferenceable(217) %3)
          to label %17 unwind label %14

14:                                               ; preds = %16, %13, %9, %5
  %15 = landingpad { ptr, i32 }
          cleanup
  call void @_ZNSt7__cxx1112basic_stringIcSt11char_traitsIcESaIcEED1Ev(ptr noundef nonnull align 8 dereferenceable(32) %6) #14
  resume { ptr, i32 } %15

16:                                               ; preds = %11
  invoke void @_ZNK4i18n12phonenumbers26PhoneNumberOfflineGeocoder20GetRegionDisplayNameEPKNSt7__cxx1112basic_stringIcSt11char_traitsIcESaIcEEERKN6icu_706LocaleE(ptr dead_on_unwind writable sret(%"class.std::__cxx11::basic_string") align 8 %0, ptr nonnull align 8 poison, ptr noundef nonnull %6, ptr noundef nonnull align 8 dereferenceable(217) %3)
          to label %17 unwind label %14

17:                                               ; preds = %16, %13
  call void @_ZNSt7__cxx1112basic_stringIcSt11char_traitsIcESaIcEED1Ev(ptr noundef nonnull align 8 dereferenceable(32) %6) #14
  ret void
}